target datalayout = "e-m:e-p270:32:32-p271:32:32-p272:64:64-i64:64-i128:128-f80:128-n8:16:32:64-S128"
target triple = "x86_64-pc-linux-gnu"

%struct.SparseMatrix_struct = type { i32, i32, i32, i32, i32, ptr, ptr, ptr, i32, i8, i64 }

; Function Attrs: nounwind uwtable
define void @SparseMatrix_delete(ptr noundef %0) #0 {
  %2 = alloca ptr, align 8
  store ptr %0, ptr %2, align 8, !tbaa !3
  %3 = load ptr, ptr %2, align 8, !tbaa !3
  %4 = icmp ne ptr %3, null
  br i1 %4, label %6, label %5

5:                                                ; preds = %1
  br label %17

6:                                                ; preds = %1
  %7 = load ptr, ptr %2, align 8, !tbaa !3
  %8 = getelementptr inbounds nuw %struct.SparseMatrix_struct, ptr %7, i32 0, i32 5
  %9 = load ptr, ptr %8, align 8, !tbaa !8
  call void @free(ptr noundef %9) #11
  %10 = load ptr, ptr %2, align 8, !tbaa !3
  %11 = getelementptr inbounds nuw %struct.SparseMatrix_struct, ptr %10, i32 0, i32 6
  %12 = load ptr, ptr %11, align 8, !tbaa !15
  call void @free(ptr noundef %12) #11
  %13 = load ptr, ptr %2, align 8, !tbaa !3
  %14 = getelementptr inbounds nuw %struct.SparseMatrix_struct, ptr %13, i32 0, i32 7
  %15 = load ptr, ptr %14, align 8, !tbaa !27
  call void @free(ptr noundef %15) #11
  %16 = load ptr, ptr %2, align 8, !tbaa !3
  call void @free(ptr noundef %16) #11
  br label %17

17:                                               ; preds = %6, %5
  ret void
}

; Function Attrs: nounwind uwtable
define ptr @SparseMatrix_to_square_matrix(ptr noundef %0, i32 noundef %1) #0 {
  %3 = alloca ptr, align 8
  %4 = alloca ptr, align 8
  %5 = alloca i32, align 4
  %6 = alloca ptr, align 8
  %7 = alloca i32, align 4
  store ptr %0, ptr %4, align 8, !tbaa !3
  store i32 %1, ptr %5, align 4, !tbaa !17
  call void @llvm.lifetime.start.p0(i64 8, ptr %6) #11
  %8 = load i32, ptr %5, align 4, !tbaa !17
  switch i32 %8, label %48 [
    i32 0, label %9
    i32 1, label %20
    i32 2, label %34
    i32 3, label %49
  ]

9:                                                ; preds = %2
  %10 = load ptr, ptr %4, align 8, !tbaa !3
  %11 = getelementptr inbounds nuw %struct.SparseMatrix_struct, ptr %10, i32 0, i32 0
  %12 = load i32, ptr %11, align 8, !tbaa !18
  %13 = load ptr, ptr %4, align 8, !tbaa !3
  %14 = getelementptr inbounds nuw %struct.SparseMatrix_struct, ptr %13, i32 0, i32 1
  %15 = load i32, ptr %14, align 4, !tbaa !19
  %16 = icmp eq i32 %12, %15
  br i1 %16, label %17, label %19

17:                                               ; preds = %9
  %18 = load ptr, ptr %4, align 8, !tbaa !3
  store ptr %18, ptr %3, align 8
  store i32 1, ptr %7, align 4
  br label %54

19:                                               ; preds = %9
  br label %49

20:                                               ; preds = %2
  %21 = load ptr, ptr %4, align 8, !tbaa !3
  %22 = getelementptr inbounds nuw %struct.SparseMatrix_struct, ptr %21, i32 0, i32 0
  %23 = load i32, ptr %22, align 8, !tbaa !18
  %24 = load ptr, ptr %4, align 8, !tbaa !3
  %25 = getelementptr inbounds nuw %struct.SparseMatrix_struct, ptr %24, i32 0, i32 1
  %26 = load i32, ptr %25, align 4, !tbaa !19
  %27 = icmp eq i32 %23, %26
  br i1 %27, label %28, label %33

28:                                               ; preds = %20
  %29 = load ptr, ptr %4, align 8, !tbaa !3
  %30 = call zeroext i1 @SparseMatrix_is_symmetric(ptr noundef %29, i1 noundef zeroext true)
  br i1 %30, label %31, label %33

31:                                               ; preds = %28
  %32 = load ptr, ptr %4, align 8, !tbaa !3
  store ptr %32, ptr %3, align 8
  store i32 1, ptr %7, align 4
  br label %54

33:                                               ; preds = %28, %20
  br label %49

34:                                               ; preds = %2
  %35 = load ptr, ptr %4, align 8, !tbaa !3
  %36 = getelementptr inbounds nuw %struct.SparseMatrix_struct, ptr %35, i32 0, i32 0
  %37 = load i32, ptr %36, align 8, !tbaa !18
  %38 = load ptr, ptr %4, align 8, !tbaa !3
  %39 = getelementptr inbounds nuw %struct.SparseMatrix_struct, ptr %38, i32 0, i32 1
  %40 = load i32, ptr %39, align 4, !tbaa !19
  %41 = icmp eq i32 %37, %40
  br i1 %41, label %42, label %47

42:                                               ; preds = %34
  %43 = load ptr, ptr %4, align 8, !tbaa !3
  %44 = call zeroext i1 @SparseMatrix_is_symmetric(ptr noundef %43, i1 noundef zeroext false)
  br i1 %44, label %45, label %47

45:                                               ; preds = %42
  %46 = load ptr, ptr %4, align 8, !tbaa !3
  store ptr %46, ptr %3, align 8
  store i32 1, ptr %7, align 4
  br label %54

47:                                               ; preds = %42, %34
  br label %49

48:                                               ; preds = %2
  br label %49

49:                                               ; preds = %48, %2, %47, %33, %19
  %50 = load ptr, ptr %4, align 8, !tbaa !3
  %51 = call ptr @SparseMatrix_get_augmented(ptr noundef %50)
  store ptr %51, ptr %6, align 8, !tbaa !3
  %52 = load ptr, ptr %4, align 8, !tbaa !3
  call void @SparseMatrix_delete(ptr noundef %52)
  %53 = load ptr, ptr %6, align 8, !tbaa !3
  store ptr %53, ptr %3, align 8
  store i32 1, ptr %7, align 4
  br label %54

54:                                               ; preds = %49, %45, %31, %17
  call void @llvm.lifetime.end.p0(i64 8, ptr %6) #11
  %55 = load ptr, ptr %3, align 8
  ret ptr %55
}