; Function Attrs: nounwind uwtable
define noundef ptr @SparseMatrix_to_square_matrix(ptr noundef captures(address_is_null, ret: address, provenance) %0, i32 noundef %1) local_unnamed_addr #0 {
  switch i32 %1, label %23 [
    i32 0, label %3
    i32 1, label %8
    i32 2, label %15
  ]

3:                                                ; preds = %2
  %4 = load i32, ptr %0, align 8, !tbaa !15
  %5 = getelementptr inbounds nuw i8, ptr %0, i64 4
  %6 = load i32, ptr %5, align 4, !tbaa !16
  %7 = icmp eq i32 %4, %6
  br i1 %7, label %SparseMatrix_delete.exit, label %.thread

8:                                                ; preds = %2
  %9 = load i32, ptr %0, align 8, !tbaa !15
  %10 = getelementptr inbounds nuw i8, ptr %0, i64 4
  %11 = load i32, ptr %10, align 4, !tbaa !16
  %12 = icmp eq i32 %9, %11
  br i1 %12, label %13, label %.thread

13:                                               ; preds = %8
  %14 = tail call zeroext i1 @SparseMatrix_is_symmetric(ptr noundef nonnull %0, i1 noundef zeroext true)
  br i1 %14, label %SparseMatrix_delete.exit, label %.thread

15:                                               ; preds = %2
  %16 = load i32, ptr %0, align 8, !tbaa !15
  %17 = getelementptr inbounds nuw i8, ptr %0, i64 4
  %18 = load i32, ptr %17, align 4, !tbaa !16
  %19 = icmp eq i32 %16, %18
  br i1 %19, label %20, label %.thread

20:                                               ; preds = %15
  %21 = tail call zeroext i1 @SparseMatrix_is_symmetric(ptr noundef nonnull %0, i1 noundef zeroext false)
  br i1 %21, label %SparseMatrix_delete.exit, label %.thread

.thread:                                          ; preds = %15, %20, %8, %13, %3
  %22 = tail call ptr @SparseMatrix_get_augmented(ptr noundef nonnull %0)
  br label %25

23:                                               ; preds = %2
  %24 = tail call ptr @SparseMatrix_get_augmented(ptr noundef %0)
  %.not.i = icmp eq ptr %0, null
  br i1 %.not.i, label %SparseMatrix_delete.exit, label %25

25:                                               ; preds = %.thread, %23
  %26 = phi ptr [ %22, %.thread ], [ %24, %23 ]
  %27 = getelementptr inbounds nuw i8, ptr %0, i64 24
  %28 = load ptr, ptr %27, align 8, !tbaa !3
  tail call void @free(ptr noundef %28) #17
  %29 = getelementptr inbounds nuw i8, ptr %0, i64 32
  %30 = load ptr, ptr %29, align 8, !tbaa !12
  tail call void @free(ptr noundef %30) #17
  %31 = getelementptr inbounds nuw i8, ptr %0, i64 40
  %32 = load ptr, ptr %31, align 8, !tbaa !13
  tail call void @free(ptr noundef %32) #17
  tail call void @free(ptr noundef nonnull %0) #17
  br label %SparseMatrix_delete.exit

SparseMatrix_delete.exit:                         ; preds = %25, %23, %20, %13, %3
  %.0 = phi ptr [ %0, %3 ], [ %0, %13 ], [ %0, %20 ], [ %24, %23 ], [ %26, %25 ]
  ret ptr %.0
}